(dp1
S'output'
p2
S"<type 'exceptions.ZeroDivisionError'> float division by zero"
p3
sS'layer'
p4
S'/home/rogoberto/web2py/applications/abencoado/views/default/acesso_geral_projeto.html'
p5
sS'code'
p6
S'response.write(\'<!DOCTYPE html>\\n<!--[if (gt IE 9)|!(IE)]><!--> <html class="no-js" lang="\', escape=False)\nresponse.write(T.accepted_language or \'en\')\nresponse.write(\'"> <!--<![endif]-->\\n  <head>\\n    <meta charset="utf-8">\\n    <!-- www.phpied.com/conditional-comments-block-downloads/ -->\\n    <!-- Always force latest IE rendering engine\\n         (even in intranet) & Chrome Frame\\n         Remove this if you use the .htaccess -->\\n    <meta http-equiv="X-UA-Compatible" content="IE=edge\', escape=False)\nresponse.write(not request.is_local and \',chrome=1\' or \'\')\nresponse.write(\'">\\n    <!--  Mobile Viewport Fix\\n          j.mp/mobileviewport & davidbcalhoun.com/2010/viewport-metatag\\n          device-width: Occupy full width of the screen in its current orientation\\n          initial-scale = 1.0 retains dimensions instead of zooming out if page height > device height\\n          user-scalable = yes allows the user to zoom in -->\\n    <meta name="viewport" content="width=device-width, initial-scale=1.0">\\n    <title>\', escape=False)\nresponse.write(response.title or request.application)\nresponse.write(\'</title>\\n    <!-- http://dev.w3.org/html5/markup/meta.name.html -->\\n    <meta name="application-name" content="\', escape=False)\nresponse.write(request.application)\nresponse.write(\'">\\n    <!-- Speaking of Google, don\\\'t forget to set your site up:\\n         http://google.com/webmasters -->\\n    <meta name="google-site-verification" content="">\\n    <!-- include stylesheets -->\\n    <link rel="stylesheet" href="https://cdnjs.cloudflare.com/ajax/libs/font-awesome/4.7.0/css/font-awesome.min.css"/>\\n    <link rel="stylesheet" href="\', escape=False)\nresponse.write(URL(\'static\',\'css/bootstrap.min.css\'))\nresponse.write(\'"/>\\n    <link rel="stylesheet" href="\', escape=False)\nresponse.write(URL(\'static\',\'css/web2py-bootstrap4.css\'))\nresponse.write(\'"/>\\n    <link rel="shortcut icon" href="\', escape=False)\nresponse.write(URL(\'static\',\'images/favicon.ico\'))\nresponse.write(\'" type="image/x-icon">\\n    <link rel="apple-touch-icon" href="\', escape=False)\nresponse.write(URL(\'static\',\'images/favicon.png\'))\nresponse.write(\'">\\n    <!-- All JavaScript at the bottom, except for Modernizr which enables\\n         HTML5 elements & feature detects -->\\n    <script src="\', escape=False)\nresponse.write(URL(\'static\',\'js/modernizr-2.8.3.min.js\'))\nresponse.write(\'"></script>\\n    <!-- Favicons -->\\n    \', escape=False)\nresponse.write(\'<script type="text/javascript"><!--\\n    // These variables are used by the web2py_ajax_init function in web2py_ajax.js (which is loaded below).\\n    \', escape=False)\nresponse.write(ASSIGNJS(\nw2p_ajax_confirm_message = T(\'Are you sure you want to delete this object?\'),\nw2p_ajax_disable_with_message = T(\'Working...\'),\nw2p_ajax_date_format = T(\'%Y-%m-%d\'),\nw2p_ajax_datetime_format = T(\'%Y-%m-%d %H:%M:%S\'),\najax_error_500 = T.M(\'An error occured, please [[reload %s]] the page\') % URL(args=request.args, vars=request.get_vars)\n))\nresponse.write(\'\\n    //--></script>\\n\', escape=False)\nresponse.files.insert(0,URL(\'static\',\'js/jquery.js\'))\nresponse.files.insert(1,URL(\'static\',\'css/calendar.css\'))\nresponse.files.insert(2,URL(\'static\',\'js/calendar.js\'))\nresponse.files.insert(3,URL(\'static\',\'js/web2py.js\'))\nresponse.include_meta()\nresponse.include_files()\nresponse.write(\'\\n\', escape=False)\nresponse.write(\' <!-- this includes jquery.js, calendar.js/.css and web2py.js -->\\n    \', escape=False)\nresponse.write(\'\\n  </head>\\n  <body>\\n    <div class="w2p_flash alert alert-dismissable">\', escape=False)\nresponse.write(response.flash or \'\')\nresponse.write(\'</div>\\n    <!-- Navbar ======================================= -->\\n    <nav class="navbar navbar-light navbar-expand-md bg-faded justify-content-center">\\n       <a href="https://rogoberto.pythonanywhere.com" class="navbar-brand d-flex w-50 mr-auto">CHEFE DE EQUIPE</a>\\n       <button class="navbar-toggler" type="button" data-toggle="collapse" data-target="#navbarNavDropdown" aria-controls="navbarNavDropdown" aria-expanded="false" aria-label="Toggle navigation">\\n         <span class="navbar-toggler-icon"></span>\\n       </button>\\n       <div class="navbar-collapse collapse w-100" id="navbarNavDropdown">\\n         <ul class="navbar-nav w-100 justify-content-center">\\n          \', escape=False)\nfor _item in response.menu or []:\n    response.write(\'\\n          \', escape=False)\n    if len(_item)<4 or not _item[3]:\n        response.write(\'\\n          <li class="nav-item \', escape=False)\n        if _item[1]:\n            response.write(\'active\', escape=False)\n            pass\n        response.write(\'">\\n            <a class="nav-link" href="\', escape=False)\n        response.write(_item[2])\n        response.write(\'">\', escape=False)\n        response.write(_item[0])\n        response.write(\'</a>\\n          </li>\\n          \', escape=False)\n    else:\n        response.write(\'\\n          <li class="nav-item dropdown">\\n            <a class="nav-link dropdown-toggle" href="\', escape=False)\n        response.write(_item[2])\n        response.write(\'" data-toggle="dropdown" aria-haspopup="true" aria-expanded="false">\', escape=False)\n        response.write(_item[0])\n        response.write(\'</a>\\n            <div class="dropdown-menu">\\n              \', escape=False)\n        for _subitem in _item[3]:\n            response.write(\'\\n              <a class="dropdown-item" href="\', escape=False)\n            response.write(_subitem[2])\n            response.write(\'">\', escape=False)\n            response.write(_subitem[0])\n            response.write(\'</a>\\n              \', escape=False)\n            pass\n        response.write(\'\\n            </div>\\n          </li>\\n          \', escape=False)\n        pass\n    response.write(\'\\n          \', escape=False)\n    pass\nresponse.write(\'\\n        </ul>\\n        \\n        \', escape=False)\nif \'auth\' in globals():\n    response.write(\'\\n        <ul class="nav navbar-nav ml-auto w-100 justify-content-end">\\n          <li class="nav-item dropdown">\\n            <a class="nav-link dropdown-toggle" href="#" data-toggle="dropdown" aria-haspopup="true" aria-expanded="false">\\n              \', escape=False)\n    if auth.user:\n        response.write(auth.user.first_name)\n    else:\n        response.write(\'LOGIN\', escape=False)\n        pass\n    response.write(\'\\n            </a>\\n            <div class="dropdown-menu dropdown-menu-right">\\n              \', escape=False)\n    if auth.user:\n        response.write(\'\\n              <a class="dropdown-item" href="\', escape=False)\n        response.write(URL(\'default\',\'user/profile\'))\n        response.write(\'">\', escape=False)\n        response.write(T(\'Profile\'))\n        response.write(\'</a>\\n              \', escape=False)\n        if \'change_password\' not in auth.settings.actions_disabled:\n            response.write(\'\\n              <a class="dropdown-item" href="\', escape=False)\n            response.write(URL(\'default\',\'user/change_password\'))\n            response.write(\'">\', escape=False)\n            response.write(T(\'Change Password\'))\n            response.write(\'</a>\\n              \', escape=False)\n            pass\n        response.write(\'\\n              <a class="dropdown-item" href="\', escape=False)\n        response.write(URL(\'default\',\'user/logout\'))\n        response.write(\'">\', escape=False)\n        response.write(T(\'Logout\'))\n        response.write(\'</a>\\n              \', escape=False)\n    else:\n        response.write(\'\\n              <a class="dropdown-item" href="\', escape=False)\n        response.write(URL(\'default\',\'user/login\'))\n        response.write(\'">\', escape=False)\n        response.write(T(\'Login\'))\n        response.write(\'</a>\\n              \', escape=False)\n        if \'register\' not in auth.settings.actions_disabled:\n            response.write(\'\\n              <a class="dropdown-item" href="\', escape=False)\n            response.write(URL(\'default\',\'user/register\'))\n            response.write(\'">\', escape=False)\n            response.write(T(\'Sign up\'))\n            response.write(\'</a>\\n              \', escape=False)\n            pass\n        response.write(\'\\n              \', escape=False)\n        if \'retrieve_password\' not in auth.settings.actions_disabled:\n            response.write(\'\\n              <a class="dropdown-item" href="\', escape=False)\n            response.write(URL(\'default\',\'user/retrieve_password\'))\n            response.write(\'">\', escape=False)\n            response.write(T(\'Lost Password\'))\n            response.write(\'</a>\\n              \', escape=False)\n            pass\n        response.write(\'\\n              \', escape=False)\n        pass\n    response.write(\'\\n            </div>\\n          </li>\\n        </ul>\\n        \', escape=False)\n    pass\nresponse.write(\'\\n      </div>\\n    </nav>\\n\\n    <!-- Masthead ===================================== -->\\n    \', escape=False)\nresponse.write(\'\\n    \', escape=False)\nresponse.write(\'\\n    <!-- Main ========================================= -->\\n    <!-- Begin page content -->\\n    <div class="container-fluid main-container">\\n        <div class="section">\\n      <div class="container">\\n        <div class="row">\\n          <div class="col-md-12">\\n      \', escape=False)\nresponse.write(\'\\n  <div class="section">\\n      <div class="container">\\n        <div class="row">\\n          <div class="col-md-12">\\n              <center style="background-color:white; color:black; padding:30px">\\n            \', escape=False)\nif projeto.nome_chefe == "MEME ABEN\xc3\x87OADO":\n    response.write(\'\\n              <img src="https://i.ibb.co/ZSFRgmM/abc.jpg" class="img-fluid">\\n                  \', escape=False)\n    pass\nresponse.write(\'\\n                  <h1>ACESSO GERAL</h1>\\n                  </center>\\n              <hr>\\n          </div>\\n          <div class="col-md-6">\\n            <ul class="list-group">\\n                 <li class="list-group-item">\\n                <a class="btn btn-block btn-success" href="\', escape=False)\nresponse.write(URL(\'venda_vista\', args=projeto.id))\nresponse.write(\'">VENDA \\xc3\\x80 VISTA</a>\\n              </li><br>\\n              <li class="list-group-item">\\n                <a class="btn btn-block btn-primary" href="\', escape=False)\nresponse.write(URL(\'mercadoria\',\'acesso_carrada\', args=projeto.id))\nresponse.write(\'">MERCADORIA</a>\\n              </li>\\n              <li class="list-group-item">\\n                <a class="btn btn-block btn-primary" href="\', escape=False)\nresponse.write(URL(\'equipe\',\'acesso_equipe\', args=projeto.id))\nresponse.write(\'">EQUIPE</a>\\n              </li>\\n                <li class="list-group-item">\\n                <a class="btn btn-block btn-primary" href="\', escape=False)\nresponse.write(URL(\'equipe\',\'acesso_funcionario\', args=projeto.id))\nresponse.write(\'">FUNCION\\xc3\\x81RIO</a>\\n              </li>\\n              <li class="list-group-item">\\n                <a class="btn btn-block btn-primary" href="\', escape=False)\nresponse.write(URL(\'despesa\',\'acesso_class_despesa\', args=projeto.id))\nresponse.write(\'">DESPESA</a>\\n              </li>\\n                <br>\\n                  <li class="list-group-item">\\n                <a class="btn btn-block btn-warning" href="\', escape=False)\nresponse.write(URL(\'relatorio\', args=projeto.id))\nresponse.write(\'">RELAT\\xc3\\x93RIO</a>\\n              </li>\\n            </ul>\\n         \\n       \', escape=False)\nlistarotulo=[]\nresponse.write(\'\\n            \', escape=False)\nlista=[]\nresponse.write(\'\\n            \', escape=False)\na=1\nresponse.write(\'\\n            \', escape=False)\nfor row in lvend:\n    response.write(\'\\n            \', escape=False)\n    listarotulo+=[a]\n    response.write(\'\\n            \', escape=False)\n    lista+=[row.vendapraso]\n    response.write(\'\\n            \', escape=False)\n    a+=1\n    response.write(\'\\n              \', escape=False)\n    vale=row.vendapraso/0.07\n    response.write(\'\\n              \', escape=False)\n    d=row.vendapraso/vale\n    response.write(\'\\n              <div class="progress">\\n  <div class="progress-bar" role="progressbar" style="width: 25%;" aria-valuenow="25" aria-valuemin="0" aria-valuemax="100">\', escape=False)\n    response.write(d)\n    response.write(\'%</div>\\n</div>\\n           \\n              <br>\\n            \', escape=False)\n    pass\nresponse.write(\'\\n              \\n               </div>\\n <div class="col-md-6">\\n\\n\\n     <script src="https://cdnjs.cloudflare.com/ajax/libs/Chart.js/2.9.3/Chart.min.js"></script>\\n<canvas id="myChart" width="50" height="50"></canvas>\\n</div>\\n<hr>\\n<script>\\nvar ctx = document.getElementById(\\\'myChart\\\').getContext(\\\'2d\\\');\\nvar myChart = new Chart(ctx, {\\n    type: \\\'horizontalBar\\\',\\n    data: {\\n        labels:  \', escape=False)\nresponse.write(listarotulo)\nresponse.write(",\\n        datasets: [{\\n                label: \'VENDAS\',\\n            data: ", escape=False)\nresponse.write(lista)\nresponse.write(\',\\n            borderWidth: 1\\n        }]\\n    },\\n});\\n</script>\\n</div>\\n </div>\\n      </div>\\n    </div>\\n\', escape=False)\nresponse.write(\'\\n      \', escape=False)\nresponse.write(response.toolbar() if response.show_toolbar else \'\')\nresponse.write(\'\\n    </div></div></div></div></div>\\n    \', escape=False)\nresponse.write(\' <!-- this is default footer -->\\n    <footer class="footer container-fluid">\\n      <div class="row">\\n        <div class="col-md-12">\\n          <div class="copyright pull-left">\', escape=False)\nresponse.write(T(\'Copyright\'))\nresponse.write(\' &#169; \', escape=False)\nresponse.write(request.now.year)\nresponse.write(\'</div>\\n          <div id="poweredBy" class="pull-right">\\n            \', escape=False)\nresponse.write(T(\'Powered by\'))\nresponse.write(\'\\n            <a href="https://api.whatsapp.com/send?phone=5588981126816">Betinho Ribeiro</a>\\n          </div>\\n        </div>\\n      </div>\\n    </footer>\\n    \', escape=False)\nresponse.write(\'\\n    <!-- The javascript =============================== -->\\n    <script src="\', escape=False)\nresponse.write(URL(\'static\',\'js/bootstrap.bundle.min.js\'))\nresponse.write(\'"></script>\\n    <script src="\', escape=False)\nresponse.write(URL(\'static\',\'js/web2py-bootstrap4.js\'))\nresponse.write(\'"></script>\\n    \', escape=False)\nresponse.write(\'\\n    \', escape=False)\nif response.google_analytics_id:\n    response.write(\'\\n    <!-- Analytics ==================================== -->\\n    <script src="\', escape=False)\n    response.write(URL(\'static\',\'js/analytics.min.js\'))\n    response.write(\'"></script>\\n    <script type="text/javascript">\\n      analytics.initialize({\\n      \\\'Google Analytics\\\':{trackingId:\\\'\', escape=False)\n    response.write(response.google_analytics_id)\n    response.write("\'}\\n      });\\n    </script>\\n    ", escape=False)\n    pass\nresponse.write(\'\\n  </body>\\n</html>\\n\', escape=False)'
p7
sS'snapshot'
p8
(dp9
S'exception'
p10
(dp11
S'__getslice__'
p12
S"<method-wrapper '__getslice__' of exceptions.ZeroDivisionError object>"
p13
sS'__str__'
p14
S"<method-wrapper '__str__' of exceptions.ZeroDivisionError object>"
p15
sS'__reduce__'
p16
S'<built-in method __reduce__ of exceptions.ZeroDivisionError object>'
p17
sS'__dict__'
p18
S'{}'
p19
sS'message'
p20
S"'float division by zero'"
p21
sS'__sizeof__'
p22
S'<built-in method __sizeof__ of exceptions.ZeroDivisionError object>'
p23
sS'__init__'
p24
S"<method-wrapper '__init__' of exceptions.ZeroDivisionError object>"
p25
sS'__setattr__'
p26
S"<method-wrapper '__setattr__' of exceptions.ZeroDivisionError object>"
p27
sS'__reduce_ex__'
p28
S'<built-in method __reduce_ex__ of exceptions.ZeroDivisionError object>'
p29
sS'__new__'
p30
S'<built-in method __new__ of type object>'
p31
sS'__format__'
p32
S'<built-in method __format__ of exceptions.ZeroDivisionError object>'
p33
sS'__class__'
p34
S"<type 'exceptions.ZeroDivisionError'>"
p35
sS'__doc__'
p36
S"'Second argument to a division or modulo operation was zero.'"
p37
sS'__getitem__'
p38
S"<method-wrapper '__getitem__' of exceptions.ZeroDivisionError object>"
p39
sS'__setstate__'
p40
S'<built-in method __setstate__ of exceptions.ZeroDivisionError object>'
p41
sS'__getattribute__'
p42
S"<method-wrapper '__getattribute__' of exceptions.ZeroDivisionError object>"
p43
sS'args'
p44
S"('float division by zero',)"
p45
sS'__subclasshook__'
p46
S'<built-in method __subclasshook__ of type object>'
p47
sS'__unicode__'
p48
S'<built-in method __unicode__ of exceptions.ZeroDivisionError object>'
p49
sS'__delattr__'
p50
S"<method-wrapper '__delattr__' of exceptions.ZeroDivisionError object>"
p51
sS'__repr__'
p52
S"<method-wrapper '__repr__' of exceptions.ZeroDivisionError object>"
p53
sS'__hash__'
p54
S"<method-wrapper '__hash__' of exceptions.ZeroDivisionError object>"
p55
ssS'evalue'
p56
S'float division by zero'
p57
sS'request'
p58
cgluon.html
XML_unpickle
p59
(S's\xccd\x00\x00<div><table><tr><td style="font-weight:bold;vertical-align:top;">ajax</td><td style="vertical-align:top;">:</td><td><div>False</div></td></tr><tr><td style="font-weight:bold;vertical-align:top;">application</td><td style="vertical-align:top;">:</td><td><div>abencoado</div></td></tr><tr><td style="font-weight:bold;vertical-align:top;">args</td><td style="vertical-align:top;">:</td><td><div><table><tr><td><div>4</div></td></tr></table></div></td></tr><tr><td style="font-weight:bold;vertical-align:top;">cid</td><td style="vertical-align:top;">:</td><td><div>None</div></td></tr><tr><td style="font-weight:bold;vertical-align:top;">client</td><td style="vertical-align:top;">:</td><td><div>187.19.190.221</div></td></tr><tr><td style="font-weight:bold;vertical-align:top;">controller</td><td style="vertical-align:top;">:</td><td><div>default</div></td></tr><tr><td style="font-weight:bold;vertical-align:top;">cookies</td><td style="vertical-align:top;">:</td><td><div><table><tr><td style="font-weight:bold;vertical-align:top;">session_id_abencoado</td><td style="vertical-align:top;">:</td><td><div>187.19.190.221-d4f5df53-55bc-42f2-8567-f737e4ea8326<table><tr><td style="font-weight:bold;vertical-align:top;">comment</td><td style="vertical-align:top;">:</td><td><div></div></td></tr><tr><td style="font-weight:bold;vertical-align:top;">domain</td><td style="vertical-align:top;">:</td><td><div></div></td></tr><tr><td style="font-weight:bold;vertical-align:top;">expires</td><td style="vertical-align:top;">:</td><td><div></div></td></tr><tr><td style="font-weight:bold;vertical-align:top;">httponly</td><td style="vertical-align:top;">:</td><td><div></div></td></tr><tr><td style="font-weight:bold;vertical-align:top;">max-age</td><td style="vertical-align:top;">:</td><td><div></div></td></tr><tr><td style="font-weight:bold;vertical-align:top;">path</td><td style="vertical-align:top;">:</td><td><div></div></td></tr><tr><td style="font-weight:bold;vertical-align:top;">secure</td><td style="vertical-align:top;">:</td><td><div></div></td></tr><tr><td style="font-weight:bold;vertical-align:top;">version</td><td style="vertical-align:top;">:</td><td><div></div></td></tr></table></div></td></tr><tr><td style="font-weight:bold;vertical-align:top;">session_id_admin</td><td style="vertical-align:top;">:</td><td><div>187.19.190.221-57496adc-2ae8-41ad-b443-74c97add2645<table><tr><td style="font-weight:bold;vertical-align:top;">comment</td><td style="vertical-align:top;">:</td><td><div></div></td></tr><tr><td style="font-weight:bold;vertical-align:top;">domain</td><td style="vertical-align:top;">:</td><td><div></div></td></tr><tr><td style="font-weight:bold;vertical-align:top;">expires</td><td style="vertical-align:top;">:</td><td><div></div></td></tr><tr><td style="font-weight:bold;vertical-align:top;">httponly</td><td style="vertical-align:top;">:</td><td><div></div></td></tr><tr><td style="font-weight:bold;vertical-align:top;">max-age</td><td style="vertical-align:top;">:</td><td><div></div></td></tr><tr><td style="font-weight:bold;vertical-align:top;">path</td><td style="vertical-align:top;">:</td><td><div></div></td></tr><tr><td style="font-weight:bold;vertical-align:top;">secure</td><td style="vertical-align:top;">:</td><td><div></div></td></tr><tr><td style="font-weight:bold;vertical-align:top;">version</td><td style="vertical-align:top;">:</td><td><div></div></td></tr></table></div></td></tr><tr><td style="font-weight:bold;vertical-align:top;">session_id_sales_credit</td><td style="vertical-align:top;">:</td><td><div>177.25.146.109-b69d9ae0-a561-436a-9946-9abe88507bd6<table><tr><td style="font-weight:bold;vertical-align:top;">comment</td><td style="vertical-align:top;">:</td><td><div></div></td></tr><tr><td style="font-weight:bold;vertical-align:top;">domain</td><td style="vertical-align:top;">:</td><td><div></div></td></tr><tr><td style="font-weight:bold;vertical-align:top;">expires</td><td style="vertical-align:top;">:</td><td><div></div></td></tr><tr><td style="font-weight:bold;vertical-align:top;">httponly</td><td style="vertical-align:top;">:</td><td><div></div></td></tr><tr><td style="font-weight:bold;vertical-align:top;">max-age</td><td style="vertical-align:top;">:</td><td><div></div></td></tr><tr><td style="font-weight:bold;vertical-align:top;">path</td><td style="vertical-align:top;">:</td><td><div></div></td></tr><tr><td style="font-weight:bold;vertical-align:top;">secure</td><td style="vertical-align:top;">:</td><td><div></div></td></tr><tr><td style="font-weight:bold;vertical-align:top;">version</td><td style="vertical-align:top;">:</td><td><div></div></td></tr></table></div></td></tr><tr><td style="font-weight:bold;vertical-align:top;">session_id_welcome</td><td style="vertical-align:top;">:</td><td><div>187.19.190.221-ad65c767-c131-45d0-a818-af0e9eedac69<table><tr><td style="font-weight:bold;vertical-align:top;">comment</td><td style="vertical-align:top;">:</td><td><div></div></td></tr><tr><td style="font-weight:bold;vertical-align:top;">domain</td><td style="vertical-align:top;">:</td><td><div></div></td></tr><tr><td style="font-weight:bold;vertical-align:top;">expires</td><td style="vertical-align:top;">:</td><td><div></div></td></tr><tr><td style="font-weight:bold;vertical-align:top;">httponly</td><td style="vertical-align:top;">:</td><td><div></div></td></tr><tr><td style="font-weight:bold;vertical-align:top;">max-age</td><td style="vertical-align:top;">:</td><td><div></div></td></tr><tr><td style="font-weight:bold;vertical-align:top;">path</td><td style="vertical-align:top;">:</td><td><div></div></td></tr><tr><td style="font-weight:bold;vertical-align:top;">secure</td><td style="vertical-align:top;">:</td><td><div></div></td></tr><tr><td style="font-weight:bold;vertical-align:top;">version</td><td style="vertical-align:top;">:</td><td><div></div></td></tr></table></div></td></tr></table></div></td></tr><tr><td style="font-weight:bold;vertical-align:top;">env</td><td style="vertical-align:top;">:</td><td><div><table><tr><td style="font-weight:bold;vertical-align:top;">CONTENT_LENGTH</td><td style="vertical-align:top;">:</td><td><div></div></td></tr><tr><td style="font-weight:bold;vertical-align:top;">CONTENT_TYPE</td><td style="vertical-align:top;">:</td><td><div></div></td></tr><tr><td style="font-weight:bold;vertical-align:top;">DOCUMENT_ROOT</td><td style="vertical-align:top;">:</td><td><div>/usr/local/openresty/nginx/html</div></td></tr><tr><td style="font-weight:bold;vertical-align:top;">HTTPS</td><td style="vertical-align:top;">:</td><td><div>on</div></td></tr><tr><td style="font-weight:bold;vertical-align:top;">HTTP_ACCEPT</td><td style="vertical-align:top;">:</td><td><div>text/html,application/xhtml+xml,application/xml;q=0.9,image/webp,image/apng,*/*;q=0.8,application/signed-exchange;v=b3;q=0.9</div></td></tr><tr><td style="font-weight:bold;vertical-align:top;">HTTP_ACCEPT_ENCODING</td><td style="vertical-align:top;">:</td><td><div>gzip, deflate, br</div></td></tr><tr><td style="font-weight:bold;vertical-align:top;">HTTP_ACCEPT_LANGUAGE</td><td style="vertical-align:top;">:</td><td><div>pt-BR,pt;q=0.9,en-US;q=0.8,en;q=0.7</div></td></tr><tr><td style="font-weight:bold;vertical-align:top;">HTTP_CACHE_CONTROL</td><td style="vertical-align:top;">:</td><td><div>max-age=0</div></td></tr><tr><td style="font-weight:bold;vertical-align:top;">HTTP_CONNECTION</td><td style="vertical-align:top;">:</td><td><div>close</div></td></tr><tr><td style="font-weight:bold;vertical-align:top;">HTTP_COOKIE</td><td style="vertical-align:top;">:</td><td><div>_ga=GA1.2.373890618.1569722219; session_id_sales_credit=177.25.146.109-b69d9ae0-a561-436a-9946-9abe88507bd6; session_id_admin=187.19.190.221-57496adc-2ae8-41ad-b443-74c97add2645; session_id_welcome=187.19.190.221-ad65c767-c131-45d0-a818-af0e9eedac69; session_id_abencoado=187.19.190.221-d4f5df53-55bc-42f2-8567-f737e4ea8326</div></td></tr><tr><td style="font-weight:bold;vertical-align:top;">HTTP_HOST</td><td style="vertical-align:top;">:</td><td><div>rogoberto.pythonanywhere.com</div></td></tr><tr><td style="font-weight:bold;vertical-align:top;">HTTP_REFERER</td><td style="vertical-align:top;">:</td><td><div>https://rogoberto.pythonanywhere.com/abencoado/equipe/acesso_equipe/4</div></td></tr><tr><td style="font-weight:bold;vertical-align:top;">HTTP_SEC_FETCH_MODE</td><td style="vertical-align:top;">:</td><td><div>navigate</div></td></tr><tr><td style="font-weight:bold;vertical-align:top;">HTTP_SEC_FETCH_SITE</td><td style="vertical-align:top;">:</td><td><div>same-origin</div></td></tr><tr><td style="font-weight:bold;vertical-align:top;">HTTP_SEC_FETCH_USER</td><td style="vertical-align:top;">:</td><td><div>?1</div></td></tr><tr><td style="font-weight:bold;vertical-align:top;">HTTP_UPGRADE_INSECURE_REQUESTS</td><td style="vertical-align:top;">:</td><td><div>1</div></td></tr><tr><td style="font-weight:bold;vertical-align:top;">HTTP_USER_AGENT</td><td style="vertical-align:top;">:</td><td><div>Mozilla/5.0 (Windows NT 6.1; Win64; x64) AppleWebKit/537.36 (KHTML, like Gecko) Chrome/79.0.3945.117 Safari/537.36</div></td></tr><tr><td style="font-weight:bold;vertical-align:top;">HTTP_X_FORWARDED_FOR</td><td style="vertical-align:top;">:</td><td><div>187.19.190.221</div></td></tr><tr><td style="font-weight:bold;vertical-align:top;">HTTP_X_REAL_IP</td><td style="vertical-align:top;">:</td><td><div>187.19.190.221</div></td></tr><tr><td style="font-weight:bold;vertical-align:top;">PATH_INFO</td><td style="vertical-align:top;">:</td><td><div>/abencoado/default/acesso_geral_projeto/4</div></td></tr><tr><td style="font-weight:bold;vertical-align:top;">QUERY_STRING</td><td style="vertical-align:top;">:</td><td><div></div></td></tr><tr><td style="font-weight:bold;vertical-align:top;">REMOTE_ADDR</td><td style="vertical-align:top;">:</td><td><div>10.0.0.249</div></td></tr><tr><td style="font-weight:bold;vertical-align:top;">REMOTE_PORT</td><td style="vertical-align:top;">:</td><td><div>46326</div></td></tr><tr><td style="font-weight:bold;vertical-align:top;">REQUEST_METHOD</td><td style="vertical-align:top;">:</td><td><div>GET</div></td></tr><tr><td style="font-weight:bold;vertical-align:top;">REQUEST_URI</td><td style="vertical-align:top;">:</td><td><div>/abencoado/default/acesso_geral_projeto/4</div></td></tr><tr><td style="font-weight:bold;vertical-align:top;">SCRIPT_NAME</td><td style="vertical-align:top;">:</td><td><div></div></td></tr><tr><td style="font-weight:bold;vertical-align:top;">SERVER_NAME</td><td style="vertical-align:top;">:</td><td><div>rogoberto.pythonanywhere.com</div></td></tr><tr><td style="font-weight:bold;vertical-align:top;">SERVER_PORT</td><td style="vertical-align:top;">:</td><td><div>443</div></td></tr><tr><td style="font-weight:bold;vertical-align:top;">SERVER_PROTOCOL</td><td style="vertical-align:top;">:</td><td><div>HTTP/1.1</div></td></tr><tr><td style="font-weight:bold;vertical-align:top;">app_folders</td><td style="vertical-align:top;">:</td><td><div>set([&#x27;/home/rogoberto/web2py/applications/abencoado/&#x27;, &#x27;/home/rogoberto/web2py/applications/sales_credit/&#x27;, &#x27;/home/rogoberto/web2py/applications/welcome/&#x27;, &#x27;/home/rogoberto/web2py/applications/admin/&#x27;])</div></td></tr><tr><td style="font-weight:bold;vertical-align:top;">applications_parent</td><td style="vertical-align:top;">:</td><td><div>/home/rogoberto/web2py</div></td></tr><tr><td style="font-weight:bold;vertical-align:top;">content_length</td><td style="vertical-align:top;">:</td><td><div></div></td></tr><tr><td style="font-weight:bold;vertical-align:top;">content_type</td><td style="vertical-align:top;">:</td><td><div></div></td></tr><tr><td style="font-weight:bold;vertical-align:top;">db_sessions</td><td style="vertical-align:top;">:</td><td><div>set([])</div></td></tr><tr><td style="font-weight:bold;vertical-align:top;">debugging</td><td style="vertical-align:top;">:</td><td><div>True</div></td></tr><tr><td style="font-weight:bold;vertical-align:top;">document_root</td><td style="vertical-align:top;">:</td><td><div>/usr/local/openresty/nginx/html</div></td></tr><tr><td style="font-weight:bold;vertical-align:top;">gluon_parent</td><td style="vertical-align:top;">:</td><td><div>/home/rogoberto/web2py</div></td></tr><tr><td style="font-weight:bold;vertical-align:top;">http_accept</td><td style="vertical-align:top;">:</td><td><div>text/html,application/xhtml+xml,application/xml;q=0.9,image/webp,image/apng,*/*;q=0.8,application/signed-exchange;v=b3;q=0.9</div></td></tr><tr><td style="font-weight:bold;vertical-align:top;">http_accept_encoding</td><td style="vertical-align:top;">:</td><td><div>gzip, deflate, br</div></td></tr><tr><td style="font-weight:bold;vertical-align:top;">http_accept_language</td><td style="vertical-align:top;">:</td><td><div>pt-BR,pt;q=0.9,en-US;q=0.8,en;q=0.7</div></td></tr><tr><td style="font-weight:bold;vertical-align:top;">http_cache_control</td><td style="vertical-align:top;">:</td><td><div>max-age=0</div></td></tr><tr><td style="font-weight:bold;vertical-align:top;">http_connection</td><td style="vertical-align:top;">:</td><td><div>close</div></td></tr><tr><td style="font-weight:bold;vertical-align:top;">http_cookie</td><td style="vertical-align:top;">:</td><td><div>_ga=GA1.2.373890618.1569722219; session_id_sales_credit=177.25.146.109-b69d9ae0-a561-436a-9946-9abe88507bd6; session_id_admin=187.19.190.221-57496adc-2ae8-41ad-b443-74c97add2645; session_id_welcome=187.19.190.221-ad65c767-c131-45d0-a818-af0e9eedac69; session_id_abencoado=187.19.190.221-d4f5df53-55bc-42f2-8567-f737e4ea8326</div></td></tr><tr><td style="font-weight:bold;vertical-align:top;">http_host</td><td style="vertical-align:top;">:</td><td><div>rogoberto.pythonanywhere.com</div></td></tr><tr><td style="font-weight:bold;vertical-align:top;">http_referer</td><td style="vertical-align:top;">:</td><td><div>https://rogoberto.pythonanywhere.com/abencoado/equipe/acesso_equipe/4</div></td></tr><tr><td style="font-weight:bold;vertical-align:top;">http_sec_fetch_mode</td><td style="vertical-align:top;">:</td><td><div>navigate</div></td></tr><tr><td style="font-weight:bold;vertical-align:top;">http_sec_fetch_site</td><td style="vertical-align:top;">:</td><td><div>same-origin</div></td></tr><tr><td style="font-weight:bold;vertical-align:top;">http_sec_fetch_user</td><td style="vertical-align:top;">:</td><td><div>?1</div></td></tr><tr><td style="font-weight:bold;vertical-align:top;">http_upgrade_insecure_requests</td><td style="vertical-align:top;">:</td><td><div>1</div></td></tr><tr><td style="font-weight:bold;vertical-align:top;">http_user_agent</td><td style="vertical-align:top;">:</td><td><div>Mozilla/5.0 (Windows NT 6.1; Win64; x64) AppleWebKit/537.36 (KHTML, like Gecko) Chrome/79.0.3945.117 Safari/537.36</div></td></tr><tr><td style="font-weight:bold;vertical-align:top;">http_x_forwarded_for</td><td style="vertical-align:top;">:</td><td><div>187.19.190.221</div></td></tr><tr><td style="font-weight:bold;vertical-align:top;">http_x_real_ip</td><td style="vertical-align:top;">:</td><td><div>187.19.190.221</div></td></tr><tr><td style="font-weight:bold;vertical-align:top;">https</td><td style="vertical-align:top;">:</td><td><div>on</div></td></tr><tr><td style="font-weight:bold;vertical-align:top;">is_jython</td><td style="vertical-align:top;">:</td><td><div>False</div></td></tr><tr><td style="font-weight:bold;vertical-align:top;">is_py2</td><td style="vertical-align:top;">:</td><td><div>True</div></td></tr><tr><td style="font-weight:bold;vertical-align:top;">is_pypy</td><td style="vertical-align:top;">:</td><td><div>False</div></td></tr><tr><td style="font-weight:bold;vertical-align:top;">is_source</td><td style="vertical-align:top;">:</td><td><div>True</div></td></tr><tr><td style="font-weight:bold;vertical-align:top;">local_hosts</td><td style="vertical-align:top;">:</td><td><div><table><tr><td><div>35.173.69.207</div></td></tr><tr><td><div>::ffff:127.0.0.1</div></td></tr><tr><td><div>::1</div></td></tr><tr><td><div>rogoberto.pythonanywhere.com</div></td></tr><tr><td><div>127.0.0.1</div></td></tr><tr><td><div>green-liveweb6</div></td></tr><tr><td><div>localhost</div></td></tr></table></div></td></tr><tr><td style="font-weight:bold;vertical-align:top;">path_info</td><td style="vertical-align:top;">:</td><td><div>/abencoado/default/acesso_geral_projeto/4</div></td></tr><tr><td style="font-weight:bold;vertical-align:top;">query_string</td><td style="vertical-align:top;">:</td><td><div></div></td></tr><tr><td style="font-weight:bold;vertical-align:top;">remote_addr</td><td style="vertical-align:top;">:</td><td><div>10.0.0.249</div></td></tr><tr><td style="font-weight:bold;vertical-align:top;">remote_port</td><td style="vertical-align:top;">:</td><td><div>46326</div></td></tr><tr><td style="font-weight:bold;vertical-align:top;">request_method</td><td style="vertical-align:top;">:</td><td><div>GET</div></td></tr><tr><td style="font-weight:bold;vertical-align:top;">request_uri</td><td style="vertical-align:top;">:</td><td><div>/abencoado/default/acesso_geral_projeto/4</div></td></tr><tr><td style="font-weight:bold;vertical-align:top;">script_name</td><td style="vertical-align:top;">:</td><td><div></div></td></tr><tr><td style="font-weight:bold;vertical-align:top;">server_name</td><td style="vertical-align:top;">:</td><td><div>rogoberto.pythonanywhere.com</div></td></tr><tr><td style="font-weight:bold;vertical-align:top;">server_port</td><td style="vertical-align:top;">:</td><td><div>443</div></td></tr><tr><td style="font-weight:bold;vertical-align:top;">server_protocol</td><td style="vertical-align:top;">:</td><td><div>HTTP/1.1</div></td></tr><tr><td style="font-weight:bold;vertical-align:top;">uwsgi.node</td><td style="vertical-align:top;">:</td><td><div>green-liveweb6</div></td></tr><tr><td style="font-weight:bold;vertical-align:top;">uwsgi.version</td><td style="vertical-align:top;">:</td><td><div>2.0.17.1</div></td></tr><tr><td style="font-weight:bold;vertical-align:top;">uwsgi_node</td><td style="vertical-align:top;">:</td><td><div>green-liveweb6</div></td></tr><tr><td style="font-weight:bold;vertical-align:top;">uwsgi_version</td><td style="vertical-align:top;">:</td><td><div>2.0.17.1</div></td></tr><tr><td style="font-weight:bold;vertical-align:top;">web2py_path</td><td style="vertical-align:top;">:</td><td><div>/home/rogoberto/web2py</div></td></tr><tr><td style="font-weight:bold;vertical-align:top;">web2py_version</td><td style="vertical-align:top;">:</td><td><div>2.17.1-stable+timestamp.2018.08.06.01.02.56</div></td></tr><tr><td style="font-weight:bold;vertical-align:top;">wsgi.errors</td><td style="vertical-align:top;">:</td><td><div>&lt;uwsgi_file__bin_user_wsgi_wrapper.ErrorLogFile object at 0x7f5e8c7f8d10&gt;</div></td></tr><tr><td style="font-weight:bold;vertical-align:top;">wsgi.file_wrapper</td><td style="vertical-align:top;">:</td><td><div>&lt;built-in function uwsgi_sendfile&gt;</div></td></tr><tr><td style="font-weight:bold;vertical-align:top;">wsgi.input</td><td style="vertical-align:top;">:</td><td><div>&lt;uwsgi._Input object at 0x7f5e8dc08ed0&gt;</div></td></tr><tr><td style="font-weight:bold;vertical-align:top;">wsgi.multiprocess</td><td style="vertical-align:top;">:</td><td><div>False</div></td></tr><tr><td style="font-weight:bold;vertical-align:top;">wsgi.multithread</td><td style="vertical-align:top;">:</td><td><div>False</div></td></tr><tr><td style="font-weight:bold;vertical-align:top;">wsgi.run_once</td><td style="vertical-align:top;">:</td><td><div>False</div></td></tr><tr><td style="font-weight:bold;vertical-align:top;">wsgi.url_scheme</td><td style="vertical-align:top;">:</td><td><div>https</div></td></tr><tr><td style="font-weight:bold;vertical-align:top;">wsgi.version</td><td style="vertical-align:top;">:</td><td><div><table><tr><td><div>1</div></td></tr><tr><td><div>0</div></td></tr></table></div></td></tr><tr><td style="font-weight:bold;vertical-align:top;">wsgi_errors</td><td style="vertical-align:top;">:</td><td><div>&lt;uwsgi_file__bin_user_wsgi_wrapper.ErrorLogFile object at 0x7f5e8c7f8d10&gt;</div></td></tr><tr><td style="font-weight:bold;vertical-align:top;">wsgi_file_wrapper</td><td style="vertical-align:top;">:</td><td><div>&lt;built-in function uwsgi_sendfile&gt;</div></td></tr><tr><td style="font-weight:bold;vertical-align:top;">wsgi_input</td><td style="vertical-align:top;">:</td><td><div>&lt;uwsgi._Input object at 0x7f5e8dc08ed0&gt;</div></td></tr><tr><td style="font-weight:bold;vertical-align:top;">wsgi_multiprocess</td><td style="vertical-align:top;">:</td><td><div>False</div></td></tr><tr><td style="font-weight:bold;vertical-align:top;">wsgi_multithread</td><td style="vertical-align:top;">:</td><td><div>False</div></td></tr><tr><td style="font-weight:bold;vertical-align:top;">wsgi_run_once</td><td style="vertical-align:top;">:</td><td><div>False</div></td></tr><tr><td style="font-weight:bold;vertical-align:top;">wsgi_url_scheme</td><td style="vertical-align:top;">:</td><td><div>https</div></td></tr><tr><td style="font-weight:bold;vertical-align:top;">wsgi_version</td><td style="vertical-align:top;">:</td><td><div><table><tr><td><div>1</div></td></tr><tr><td><div>0</div></td></tr></table></div></td></tr></table></div></td></tr><tr><td style="font-weight:bold;vertical-align:top;">extension</td><td style="vertical-align:top;">:</td><td><div>html</div></td></tr><tr><td style="font-weight:bold;vertical-align:top;">folder</td><td style="vertical-align:top;">:</td><td><div>/home/rogoberto/web2py/applications/abencoado/</div></td></tr><tr><td style="font-weight:bold;vertical-align:top;">function</td><td style="vertical-align:top;">:</td><td><div>acesso_geral_projeto</div></td></tr><tr><td style="font-weight:bold;vertical-align:top;">global_settings</td><td style="vertical-align:top;">:</td><td><div><table><tr><td style="font-weight:bold;vertical-align:top;">app_folders</td><td style="vertical-align:top;">:</td><td><div>set([&#x27;/home/rogoberto/web2py/applications/abencoado/&#x27;, &#x27;/home/rogoberto/web2py/applications/sales_credit/&#x27;, &#x27;/home/rogoberto/web2py/applications/welcome/&#x27;, &#x27;/home/rogoberto/web2py/applications/admin/&#x27;])</div></td></tr><tr><td style="font-weight:bold;vertical-align:top;">applications_parent</td><td style="vertical-align:top;">:</td><td><div>/home/rogoberto/web2py</div></td></tr><tr><td style="font-weight:bold;vertical-align:top;">db_sessions</td><td style="vertical-align:top;">:</td><td><div>set([])</div></td></tr><tr><td style="font-weight:bold;vertical-align:top;">debugging</td><td style="vertical-align:top;">:</td><td><div>True</div></td></tr><tr><td style="font-weight:bold;vertical-align:top;">gluon_parent</td><td style="vertical-align:top;">:</td><td><div>/home/rogoberto/web2py</div></td></tr><tr><td style="font-weight:bold;vertical-align:top;">is_jython</td><td style="vertical-align:top;">:</td><td><div>False</div></td></tr><tr><td style="font-weight:bold;vertical-align:top;">is_py2</td><td style="vertical-align:top;">:</td><td><div>True</div></td></tr><tr><td style="font-weight:bold;vertical-align:top;">is_pypy</td><td style="vertical-align:top;">:</td><td><div>False</div></td></tr><tr><td style="font-weight:bold;vertical-align:top;">is_source</td><td style="vertical-align:top;">:</td><td><div>True</div></td></tr><tr><td style="font-weight:bold;vertical-align:top;">local_hosts</td><td style="vertical-align:top;">:</td><td><div><table><tr><td><div>35.173.69.207</div></td></tr><tr><td><div>::ffff:127.0.0.1</div></td></tr><tr><td><div>::1</div></td></tr><tr><td><div>rogoberto.pythonanywhere.com</div></td></tr><tr><td><div>127.0.0.1</div></td></tr><tr><td><div>green-liveweb6</div></td></tr><tr><td><div>localhost</div></td></tr></table></div></td></tr><tr><td style="font-weight:bold;vertical-align:top;">web2py_version</td><td style="vertical-align:top;">:</td><td><div>2.17.1-stable+timestamp.2018.08.06.01.02.56</div></td></tr></table></div></td></tr><tr><td style="font-weight:bold;vertical-align:top;">is_https</td><td style="vertical-align:top;">:</td><td><div>True</div></td></tr><tr><td style="font-weight:bold;vertical-align:top;">is_local</td><td style="vertical-align:top;">:</td><td><div>False</div></td></tr><tr><td style="font-weight:bold;vertical-align:top;">is_restful</td><td style="vertical-align:top;">:</td><td><div>False</div></td></tr><tr><td style="font-weight:bold;vertical-align:top;">is_scheduler</td><td style="vertical-align:top;">:</td><td><div>False</div></td></tr><tr><td style="font-weight:bold;vertical-align:top;">is_shell</td><td style="vertical-align:top;">:</td><td><div>False</div></td></tr><tr><td style="font-weight:bold;vertical-align:top;">method</td><td style="vertical-align:top;">:</td><td><div>GET</div></td></tr><tr><td style="font-weight:bold;vertical-align:top;">now</td><td style="vertical-align:top;">:</td><td><div>datetime.datetime(2020, 1, 18, 21, 27, 4, 189272)</div></td></tr><tr><td style="font-weight:bold;vertical-align:top;">raw_args</td><td style="vertical-align:top;">:</td><td><div>4</div></td></tr><tr><td style="font-weight:bold;vertical-align:top;">raw_extension</td><td style="vertical-align:top;">:</td><td><div>None</div></td></tr><tr><td style="font-weight:bold;vertical-align:top;">url</td><td style="vertical-align:top;">:</td><td><div>/abencoado/default/acesso_geral_projeto/4</div></td></tr><tr><td style="font-weight:bold;vertical-align:top;">utcnow</td><td style="vertical-align:top;">:</td><td><div>datetime.datetime(2020, 1, 18, 21, 27, 4, 189296)</div></td></tr><tr><td style="font-weight:bold;vertical-align:top;">wsgi</td><td style="vertical-align:top;">:</td><td><div>&lt;gluon.main.LazyWSGI object at 0x7f5e859f0490&gt;</div></td></tr></table></div>'
tRp60
sS'frames'
p61
(lp62
(dp63
S'file'
p64
S'/home/rogoberto/web2py/gluon/restricted.py'
p65
sS'dump'
p66
(dp67
S'environment'
p68
S"{'A': <class 'gluon.html.A'>, 'ANY_OF': <class 'gluon.validators.ANY_OF'>, 'ASSIGNJS': <function ASSIGNJS>, 'AppConfig': <function AppConfig>, 'Auth': <class 'gluon.tools.Auth'>, 'B': <class 'gluon.html.B'>, 'BEAUTIFY': <class 'gluon.html.BEAUTIFY'>, 'BODY': <class 'gluon.html.BODY'>, 'BR': <class 'gluon.html.BR'>, 'BUTTON': <class 'gluon.html.BUTTON'>, ...}"
p69
sS'ccode'
p70
S'<code object <module> at 0x7f5e856da8b0, file "/...views/default/acesso_geral_projeto.html", line 1>'
p71
ssS'lnum'
p72
I219
sS'lines'
p73
(dp74
I214
S'    if environment is None:'
p75
sI215
S'        environment = {}'
p76
sI216
S"    environment['__file__'] = layer"
p77
sI217
S"    environment['__name__'] = '__restricted__'"
p78
sI218
S'    try:'
p79
sI219
S'        exec(ccode, environment)'
p80
sI220
S'    except HTTP:'
p81
sI221
S'        raise'
p82
sI222
S'    except RestrictedError:'
p83
sI223
S'        # do not encapsulate (obfuscate) the original RestrictedError'
p84
ssS'call'
p85
S'(ccode=<code object <module> at 0x7f5e856da8b0, file "/...views/default/acesso_geral_projeto.html", line 1>, environment={\'A\': <class \'gluon.html.A\'>, \'ANY_OF\': <class \'gluon.validators.ANY_OF\'>, \'ASSIGNJS\': <function ASSIGNJS>, \'AppConfig\': <function AppConfig>, \'Auth\': <class \'gluon.tools.Auth\'>, \'B\': <class \'gluon.html.B\'>, \'BEAUTIFY\': <class \'gluon.html.BEAUTIFY\'>, \'BODY\': <class \'gluon.html.BODY\'>, \'BR\': <class \'gluon.html.BR\'>, \'BUTTON\': <class \'gluon.html.BUTTON\'>, ...}, layer=\'/home/rogoberto/web2py/applications/abencoado/views/default/acesso_geral_projeto.html\', scode=r"response.write(\'<!DOCTYPE html>\\n<!--[if (gt IE ...nse.write(\'\\n  </body>\\n</html>\\n\', escape=False)")'
p86
sS'func'
p87
S'restricted'
p88
sa(dp89
g64
S'/home/rogoberto/web2py/applications/abencoado/views/default/acesso_geral_projeto.html'
p90
sg66
(dp91
sg72
I157
sg73
(dp92
I160
S"    response.write('%</div>\\n</div>\\n           \\n              <br>\\n            ', escape=False)"
p93
sI161
S'    pass'
p94
sI162
S'response.write(\'\\n              \\n               </div>\\n <div class="col-md-6">\\n\\n\\n     <script src="https://cdnjs.cloudflare.com/ajax/libs/Chart.js/2.9.3/Chart.min.js"></script>\\n<canvas id="myChart" width="50" height="50"></canvas>\\n</div>\\n<hr>\\n<script>\\nvar ctx = document.getElementById(\\\'myChart\\\').getContext(\\\'2d\\\');\\nvar myChart = new Chart(ctx, {\\n    type: \\\'horizontalBar\\\',\\n    data: {\\n        labels:  \', escape=False)'
p95
sI163
S'response.write(listarotulo)'
p96
sI164
S'response.write(",\\n        datasets: [{\\n                label: \'VENDAS\',\\n            data: ", escape=False)'
p97
sI165
S'response.write(lista)'
p98
sI166
S"response.write(',\\n            borderWidth: 1\\n        }]\\n    },\\n});\\n</script>\\n</div>\\n </div>\\n      </div>\\n    </div>\\n', escape=False)"
p99
sI167
S"response.write('\\n      ', escape=False)"
p100
sI148
S"    response.write('\\n            ', escape=False)"
p101
sI149
S'    listarotulo+=[a]'
p102
sI150
S"    response.write('\\n            ', escape=False)"
p103
sI151
S'    lista+=[row.vendapraso]'
p104
sI152
S"    response.write('\\n            ', escape=False)"
p105
sI153
S'    a+=1'
p106
sI154
S"    response.write('\\n              ', escape=False)"
p107
sI155
S'    vale=row.vendapraso/0.07'
p108
sI156
S"    response.write('\\n              ', escape=False)"
p109
sI157
S'    d=row.vendapraso/vale'
p110
sI158
S'    response.write(\'\\n              <div class="progress">\\n  <div class="progress-bar" role="progressbar" style="width: 25%;" aria-valuenow="25" aria-valuemin="0" aria-valuemax="100">\', escape=False)'
p111
sI159
S'    response.write(d)'
p112
ssg85
S'()'
p113
sg87
S'<module>'
p114
sasS'pyver'
p115
S'Python 2.7.12: /usr/local/bin/uwsgi (prefix: /usr)'
p116
sS'session'
p117
g59
(S'sk\t\x00\x00<div><table><tr><td style="font-weight:bold;vertical-align:top;">auth</td><td style="vertical-align:top;">:</td><td><div><table><tr><td style="font-weight:bold;vertical-align:top;">expiration</td><td style="vertical-align:top;">:</td><td><div>3600</div></td></tr><tr><td style="font-weight:bold;vertical-align:top;">hmac_key</td><td style="vertical-align:top;">:</td><td><div>ce2c4f20-f2f6-4a93-a4dd-a6b800312ac7</div></td></tr><tr><td style="font-weight:bold;vertical-align:top;">last_visit</td><td style="vertical-align:top;">:</td><td><div>datetime.datetime(2020, 1, 18, 21, 23, 44, 293754)</div></td></tr><tr><td style="font-weight:bold;vertical-align:top;">remember_me</td><td style="vertical-align:top;">:</td><td><div>False</div></td></tr><tr><td style="font-weight:bold;vertical-align:top;">user</td><td style="vertical-align:top;">:</td><td><div><table><tr><td style="font-weight:bold;vertical-align:top;">email</td><td style="vertical-align:top;">:</td><td><div>meme@gmail.com</div></td></tr><tr><td style="font-weight:bold;vertical-align:top;">first_name</td><td style="vertical-align:top;">:</td><td><div>MEME</div></td></tr><tr><td style="font-weight:bold;vertical-align:top;">id</td><td style="vertical-align:top;">:</td><td><div>2L</div></td></tr><tr><td style="font-weight:bold;vertical-align:top;">last_name</td><td style="vertical-align:top;">:</td><td><div>ABEN\xc3\x87OADO</div></td></tr><tr><td style="font-weight:bold;vertical-align:top;">registration_id</td><td style="vertical-align:top;">:</td><td><div></div></td></tr><tr><td style="font-weight:bold;vertical-align:top;">registration_key</td><td style="vertical-align:top;">:</td><td><div></div></td></tr><tr><td style="font-weight:bold;vertical-align:top;">reset_password_key</td><td style="vertical-align:top;">:</td><td><div></div></td></tr></table></div></td></tr><tr><td style="font-weight:bold;vertical-align:top;">user_groups</td><td style="vertical-align:top;">:</td><td><div><table><tr><td style="font-weight:bold;vertical-align:top;">2</td><td style="vertical-align:top;">:</td><td><div>user_2</div></td></tr><tr><td style="font-weight:bold;vertical-align:top;">5</td><td style="vertical-align:top;">:</td><td><div>operador</div></td></tr></table></div></td></tr></table></div></td></tr><tr><td style="font-weight:bold;vertical-align:top;">flash</td><td style="vertical-align:top;">:</td><td><div>None</div></td></tr></table></div>'
tRp118
sS'etype'
p119
S"<type 'exceptions.ZeroDivisionError'>"
p120
sS'date'
p121
S'Sat Jan 18 21:27:04 2020'
p122
sS'response'
p123
g59
(S's\xe6\x1f\x00\x00<div><table><tr><td style="font-weight:bold;vertical-align:top;">body</td><td style="vertical-align:top;">:</td><td><div>&lt;cStringIO.StringO object at 0x7f5e85508228&gt;</div></td></tr><tr><td style="font-weight:bold;vertical-align:top;">cookies</td><td style="vertical-align:top;">:</td><td><div><table><tr><td style="font-weight:bold;vertical-align:top;">session_id_abencoado</td><td style="vertical-align:top;">:</td><td><div>187.19.190.221-d4f5df53-55bc-42f2-8567-f737e4ea8326<table><tr><td style="font-weight:bold;vertical-align:top;">comment</td><td style="vertical-align:top;">:</td><td><div></div></td></tr><tr><td style="font-weight:bold;vertical-align:top;">domain</td><td style="vertical-align:top;">:</td><td><div></div></td></tr><tr><td style="font-weight:bold;vertical-align:top;">expires</td><td style="vertical-align:top;">:</td><td><div></div></td></tr><tr><td style="font-weight:bold;vertical-align:top;">httponly</td><td style="vertical-align:top;">:</td><td><div></div></td></tr><tr><td style="font-weight:bold;vertical-align:top;">max-age</td><td style="vertical-align:top;">:</td><td><div></div></td></tr><tr><td style="font-weight:bold;vertical-align:top;">path</td><td style="vertical-align:top;">:</td><td><div>/</div></td></tr><tr><td style="font-weight:bold;vertical-align:top;">secure</td><td style="vertical-align:top;">:</td><td><div></div></td></tr><tr><td style="font-weight:bold;vertical-align:top;">version</td><td style="vertical-align:top;">:</td><td><div></div></td></tr></table></div></td></tr></table></div></td></tr><tr><td style="font-weight:bold;vertical-align:top;">delimiters</td><td style="vertical-align:top;">:</td><td><div><table><tr><td><div>{{</div></td></tr><tr><td><div>}}</div></td></tr></table></div></td></tr><tr><td style="font-weight:bold;vertical-align:top;">files</td><td style="vertical-align:top;">:</td><td><div><table><tr><td><div>/abencoado/static/js/jquery.js</div></td></tr><tr><td><div>/abencoado/static/css/calendar.css</div></td></tr><tr><td><div>/abencoado/static/js/calendar.js</div></td></tr><tr><td><div>/abencoado/static/js/web2py.js</div></td></tr></table></div></td></tr><tr><td style="font-weight:bold;vertical-align:top;">flash</td><td style="vertical-align:top;">:</td><td><div></div></td></tr><tr><td style="font-weight:bold;vertical-align:top;">form_label_separator</td><td style="vertical-align:top;">:</td><td><div></div></td></tr><tr><td style="font-weight:bold;vertical-align:top;">formstyle</td><td style="vertical-align:top;">:</td><td><div>bootstrap4_inline</div></td></tr><tr><td style="font-weight:bold;vertical-align:top;">generic_patterns</td><td style="vertical-align:top;">:</td><td><div><table></table></div></td></tr><tr><td style="font-weight:bold;vertical-align:top;">google_analytics_id</td><td style="vertical-align:top;">:</td><td><div>None</div></td></tr><tr><td style="font-weight:bold;vertical-align:top;">headers</td><td style="vertical-align:top;">:</td><td><div><table><tr><td style="font-weight:bold;vertical-align:top;">Cache-Control</td><td style="vertical-align:top;">:</td><td><div>max-age=1000, s-maxage=1000, public</div></td></tr><tr><td style="font-weight:bold;vertical-align:top;">Expires</td><td style="vertical-align:top;">:</td><td><div>Sat, 18 Jan 2020 21:43:44 GMT</div></td></tr><tr><td style="font-weight:bold;vertical-align:top;">Pragma</td><td style="vertical-align:top;">:</td><td><div>None</div></td></tr><tr><td style="font-weight:bold;vertical-align:top;">X-Powered-By</td><td style="vertical-align:top;">:</td><td><div>web2py</div></td></tr></table></div></td></tr><tr><td style="font-weight:bold;vertical-align:top;">menu</td><td style="vertical-align:top;">:</td><td><div><table><tr><td><div><table><tr><td><div>PRINCIPAL</div></td></tr><tr><td><div>False</div></td></tr><tr><td><div>/abencoado/default/index</div></td></tr><tr><td><div><table></table></div></td></tr></table></div></td></tr><tr><td><div><table><tr><td><div>ADM</div></td></tr><tr><td><div>False</div></td></tr><tr><td><div>/abencoado/default/grade</div></td></tr><tr><td><div><table></table></div></td></tr></table></div></td></tr></table></div></td></tr><tr><td style="font-weight:bold;vertical-align:top;">meta</td><td style="vertical-align:top;">:</td><td><div><table><tr><td style="font-weight:bold;vertical-align:top;">author</td><td style="vertical-align:top;">:</td><td><div>Rogoberto RIbeiro &lt;you@example.com&gt;</div></td></tr><tr><td style="font-weight:bold;vertical-align:top;">description</td><td style="vertical-align:top;">:</td><td><div>Gerenciamento do chefe de equipe</div></td></tr><tr><td style="font-weight:bold;vertical-align:top;">generator</td><td style="vertical-align:top;">:</td><td><div>Web2py Web Framework</div></td></tr><tr><td style="font-weight:bold;vertical-align:top;">keywords</td><td style="vertical-align:top;">:</td><td><div><table><tr><td><div>web2py</div></td></tr><tr><td><div>python</div></td></tr><tr><td><div>framework</div></td></tr></table></div></td></tr></table></div></td></tr><tr><td style="font-weight:bold;vertical-align:top;">models_to_run</td><td style="vertical-align:top;">:</td><td><div><table><tr><td><div>^\\w+\\.py$</div></td></tr><tr><td><div>^default/\\w+\\.py$</div></td></tr><tr><td><div>^default/acesso_geral_projeto/\\w+\\.py$</div></td></tr></table></div></td></tr><tr><td style="font-weight:bold;vertical-align:top;">postprocessing</td><td style="vertical-align:top;">:</td><td><div><table></table></div></td></tr><tr><td style="font-weight:bold;vertical-align:top;">session_client</td><td style="vertical-align:top;">:</td><td><div>187.19.190.221</div></td></tr><tr><td style="font-weight:bold;vertical-align:top;">session_cookie_compression_level</td><td style="vertical-align:top;">:</td><td><div>None</div></td></tr><tr><td style="font-weight:bold;vertical-align:top;">session_cookie_expires</td><td style="vertical-align:top;">:</td><td><div>None</div></td></tr><tr><td style="font-weight:bold;vertical-align:top;">session_data_name</td><td style="vertical-align:top;">:</td><td><div>session_data_abencoado</div></td></tr><tr><td style="font-weight:bold;vertical-align:top;">session_file</td><td style="vertical-align:top;">:</td><td><div>&lt;open file &#x27;/home/rogoberto/web2py/applications/abencoado/sessions/103/0cf/187.19.190.221-d4f5df53-55bc-42f2-8567-f737e4ea8326&#x27;, mode &#x27;rb+&#x27; at 0x7f5e855359c0&gt;</div></td></tr><tr><td style="font-weight:bold;vertical-align:top;">session_filename</td><td style="vertical-align:top;">:</td><td><div>/home/rogoberto/web2py/applications/abencoado/sessions/187.19.190.221-d4f5df53-55bc-42f2-8567-f737e4ea8326</div></td></tr><tr><td style="font-weight:bold;vertical-align:top;">session_hash</td><td style="vertical-align:top;">:</td><td><div>6e1879a056b12c35426a5148ddf0a65e</div></td></tr><tr><td style="font-weight:bold;vertical-align:top;">session_id</td><td style="vertical-align:top;">:</td><td><div>187.19.190.221-d4f5df53-55bc-42f2-8567-f737e4ea8326</div></td></tr><tr><td style="font-weight:bold;vertical-align:top;">session_id_name</td><td style="vertical-align:top;">:</td><td><div>session_id_abencoado</div></td></tr><tr><td style="font-weight:bold;vertical-align:top;">session_locked</td><td style="vertical-align:top;">:</td><td><div>True</div></td></tr><tr><td style="font-weight:bold;vertical-align:top;">session_masterapp</td><td style="vertical-align:top;">:</td><td><div>abencoado</div></td></tr><tr><td style="font-weight:bold;vertical-align:top;">session_new</td><td style="vertical-align:top;">:</td><td><div>False</div></td></tr><tr><td style="font-weight:bold;vertical-align:top;">session_storage_type</td><td style="vertical-align:top;">:</td><td><div>file</div></td></tr><tr><td style="font-weight:bold;vertical-align:top;">show_toolbar</td><td style="vertical-align:top;">:</td><td><div>False</div></td></tr><tr><td style="font-weight:bold;vertical-align:top;">status</td><td style="vertical-align:top;">:</td><td><div>200</div></td></tr><tr><td style="font-weight:bold;vertical-align:top;">view</td><td style="vertical-align:top;">:</td><td><div>default/acesso_geral_projeto.html</div></td></tr></table></div>'
tRp124
sS'locals'
p125
(dp126
S'PY2'
p127
S'True'
p128
sS'OBJECT'
p129
S"<class 'gluon.html.OBJECT'>"
p130
sS'SQLDB'
p131
S"<class 'pydal.base.DAL'>"
p132
sg117
S"<Storage {'_formkey[projeto/4]': ['b6646974-6e64...-c322-47a0-be21-4ecf2a25f802'], '_secure': True}>"
p133
sS'LINK'
p134
S"<class 'gluon.html.LINK'>"
p135
sS'BR'
p136
S"<class 'gluon.html.BR'>"
p137
sS'local_import'
p138
S'<function <lambda>>'
p139
sS'OPTGROUP'
p140
S"<class 'gluon.html.OPTGROUP'>"
p141
sS'__package__'
p142
S'None'
p143
sS'row'
p144
S'<Row {\'venda\': <Set ("venda"."vendedor" = 19)>, ...caderno\': 0.0, \'projeto\': 4L, \'descricao\': None}>'
p145
sS'PRE'
p146
S"<class 'gluon.html.PRE'>"
p147
sS'IS_INT_IN_RANGE'
p148
S"<class 'gluon.validators.IS_INT_IN_RANGE'>"
p149
sS'to_bytes'
p150
S'<function to_bytes>'
p151
sS'IS_LOWER'
p152
S"<class 'gluon.validators.IS_LOWER'>"
p153
sS'IS_STRONG'
p154
S"<class 'gluon.validators.IS_STRONG'>"
p155
sS'cache'
p156
S'<gluon.cache.Cache object>'
p157
sS'IS_IN_DB'
p158
S"<class 'gluon.validators.IS_IN_DB'>"
p159
sS'TAG'
p160
S'<gluon.html.__TAG__ object>'
p161
sS'SQLField'
p162
S"<class 'pydal.objects.Field'>"
p163
sS'mail'
p164
S'<gluon.tools.Mail object>'
p165
sS'BODY'
p166
S"<class 'gluon.html.BODY'>"
p167
sS'IS_DATE_IN_RANGE'
p168
S"<class 'gluon.validators.IS_DATE_IN_RANGE'>"
p169
sS'lvend'
p170
S'<Rows (25)>'
p171
sS'IFRAME'
p172
S"<class 'gluon.html.IFRAME'>"
p173
sS'URL'
p174
S'<function URL>'
p175
sS'__file__'
p176
S"'/home/rogoberto/web2py/applications/abencoado/views/default/acesso_geral_projeto.html'"
p177
sS'db'
p178
S'<DAL uri="sqlite://storage.sqlite">'
p179
sS'auth'
p180
S'<gluon.tools.Auth object>'
p181
sS'P'
S"<class 'gluon.html.P'>"
p182
sS'TFOOT'
p183
S"<class 'gluon.html.TFOOT'>"
p184
sS'iteritems'
p185
S'<function <lambda>>'
p186
sS'XHTML'
p187
S"<class 'gluon.html.XHTML'>"
p188
sS'ON'
p189
g128
sS'OL'
p190
S"<class 'gluon.html.OL'>"
p191
sS'd'
S'0.07'
p192
sS'TEXTAREA'
p193
S"<class 'gluon.html.TEXTAREA'>"
p194
sS'MENU'
p195
S"<class 'gluon.html.MENU'>"
p196
sS'IS_IMAGE'
p197
S"<class 'gluon.validators.IS_IMAGE'>"
p198
sS'EM'
p199
S"<class 'gluon.html.EM'>"
p200
sS'CODE'
p201
S"<class 'gluon.html.CODE'>"
p202
sS'HTTP'
p203
S"<class 'gluon.http.HTTP'>"
p204
sS'HR'
p205
S"<class 'gluon.html.HR'>"
p206
sS'IS_DATETIME'
p207
S"<class 'gluon.validators.IS_DATETIME'>"
p208
sS'reduce'
p209
S'<built-in function reduce>'
p210
sS'STYLE'
p211
S"<class 'gluon.html.STYLE'>"
p212
sS'LABEL'
p213
S"<class 'gluon.html.LABEL'>"
p214
sS'CLEANUP'
p215
S"<class 'gluon.validators.CLEANUP'>"
p216
sS'BUTTON'
p217
S"<class 'gluon.html.BUTTON'>"
p218
sS'SELECT'
p219
S"<class 'gluon.html.SELECT'>"
p220
sS'CENTER'
p221
S"<class 'gluon.html.CENTER'>"
p222
sS'Auth'
p223
S"<class 'gluon.tools.Auth'>"
p224
sS'__builtins__'
p225
S"{'ArithmeticError': <type 'exceptions.ArithmeticError'>, 'AssertionError': <type 'exceptions.AssertionError'>, 'AttributeError': <type 'exceptions.AttributeError'>, 'BaseException': <type 'exceptions.BaseException'>, 'BufferError': <type 'exceptions.BufferError'>, 'BytesWarning': <type 'exceptions.BytesWarning'>, 'DeprecationWarning': <type 'exceptions.DeprecationWarning'>, 'EOFError': <type 'exceptions.EOFError'>, 'Ellipsis': Ellipsis, 'EnvironmentError': <type 'exceptions.EnvironmentError'>, ...}"
p226
sS'HTML'
p227
S"<class 'gluon.html.HTML'>"
p228
sS'SQLFORM'
p229
S"<class 'gluon.sqlhtml.SQLFORM'>"
p230
sS'_item'
p231
S"(<lazyT 'ADM'>, False, '/abencoado/default/grade', [])"
p232
sS'LOAD'
p233
S'<function LOAD>'
p234
sS'redirect'
p235
S'<function redirect>'
p236
sS'FIELDSET'
p237
S"<class 'gluon.html.FIELDSET'>"
p238
sS'IS_EQUAL_TO'
p239
S"<class 'gluon.validators.IS_EQUAL_TO'>"
p240
sS'vale'
p241
S'0.0'
p242
sS'embed64'
p243
S'<function embed64>'
p244
sS'IS_LIST_OF'
p245
S"<class 'gluon.validators.IS_LIST_OF'>"
p246
sS'INPUT'
p247
S"<class 'gluon.html.INPUT'>"
p248
sS'EMBED'
p249
S"<class 'gluon.html.EMBED'>"
p250
sS'configuration'
p251
S"{'host': {'names': 'localhost:*, 127.0.0.1:*, *:...': 'sqlite://storage.sqlite', 'pool_size': '10'}}"
p252
sS'H2'
p253
S"<class 'gluon.html.H2'>"
p254
sS'H3'
p255
S"<class 'gluon.html.H3'>"
p256
sS'projeto'
p257
S'<Row {\'vendedor\': <Set ("vendedor"."projeto" = 4...c3\\x87OADO\', \'total_preco_mercadoria\': 781030.0}>'
p258
sS'H1'
p259
S"<class 'gluon.html.H1'>"
p260
sS'H6'
p261
S"<class 'gluon.html.H6'>"
p262
sS'H4'
p263
S"<class 'gluon.html.H4'>"
p264
sS'H5'
p265
S"<class 'gluon.html.H5'>"
p266
sS'UL'
p267
S"<class 'gluon.html.UL'>"
p268
sS'IS_UPPER'
p269
S"<class 'gluon.validators.IS_UPPER'>"
p270
sS'xmlescape'
p271
S'<function xmlescape>'
p272
sS'IS_TIME'
p273
S"<class 'gluon.validators.IS_TIME'>"
p274
sS'OPTION'
p275
S"<class 'gluon.html.OPTION'>"
p276
sS'TITLE'
p277
S"<class 'gluon.html.TITLE'>"
p278
sS'CRYPT'
p279
S"<class 'gluon.validators.CRYPT'>"
p280
sS'IS_EMPTY_OR'
p281
S"<class 'gluon.validators.IS_EMPTY_OR'>"
p282
sS'MARKMIN'
p283
S"<class 'gluon.html.MARKMIN'>"
p284
sS'__name__'
p285
S"'__restricted__'"
p286
sS'STRONG'
p287
S"<class 'gluon.html.STRONG'>"
p288
sS'COL'
p289
S"<class 'gluon.html.COL'>"
p290
sS'SCRIPT'
p291
S"<class 'gluon.html.SCRIPT'>"
p292
sS'TABLE'
p293
S"<class 'gluon.html.TABLE'>"
p294
sS'IS_IPV4'
p295
S"<class 'gluon.validators.IS_IPV4'>"
p296
sS'IS_LENGTH'
p297
S"<class 'gluon.validators.IS_LENGTH'>"
p298
sS'IS_IPV6'
p299
S"<class 'gluon.validators.IS_IPV6'>"
p300
sS'XML'
p301
S"<class 'gluon.html.XML'>"
p302
sS'ANY_OF'
p303
S"<class 'gluon.validators.ANY_OF'>"
p304
sS'B'
S"<class 'gluon.html.B'>"
p305
sS'IMG'
p306
S"<class 'gluon.html.IMG'>"
p307
sS'SQLTABLE'
p308
S"<class 'gluon.sqlhtml.SQLTABLE'>"
p309
sS'IS_MATCH'
p310
S"<class 'gluon.validators.IS_MATCH'>"
p311
sS'IS_ALPHANUMERIC'
p312
S"<class 'gluon.validators.IS_ALPHANUMERIC'>"
p313
sS'_app'
p314
S"'abencoado'"
p315
sS'listarotulo'
p316
S'[1, 2, 3, 4, 5, 6, 7, 8, 9, 10, 11, 12, 13, 14, 15]'
p317
sS'lista'
p318
S'[8310.0, 11340.0, 7820.0, 7080.0, 8820.0, 10640.0, 13350.0, 20040.0, 8140.0, 7730.0, 6610.0, 8670.0, 9830.0, 9130.0, 0.0]'
p319
sS'SPAN'
p320
S"<class 'gluon.html.SPAN'>"
p321
sS'IS_JSON'
p322
S"<class 'gluon.validators.IS_JSON'>"
p323
sS'IS_IPADDRESS'
p324
S"<class 'gluon.validators.IS_IPADDRESS'>"
p325
sS'IS_SLUG'
p326
S"<class 'gluon.validators.IS_SLUG'>"
p327
sS'BEAUTIFY'
p328
S"<class 'gluon.html.BEAUTIFY'>"
p329
sS'META'
p330
S"<class 'gluon.html.META'>"
p331
sS'AppConfig'
p332
S'<function AppConfig>'
p333
sS'IS_DATE'
p334
S"<class 'gluon.validators.IS_DATE'>"
p335
sS'IS_EMAIL'
p336
S"<class 'gluon.validators.IS_EMAIL'>"
p337
sS'IS_NOT_EMPTY'
p338
S"<class 'gluon.validators.IS_NOT_EMPTY'>"
p339
sS'xrange'
p340
S"<type 'xrange'>"
p341
sS'TBODY'
p342
S"<class 'gluon.html.TBODY'>"
p343
sS'CAT'
p344
S"<class 'gluon.html.CAT'>"
p345
sS'Field'
p346
S"<class 'pydal.objects.Field'>"
p347
sS'IS_LIST_OF_EMAILS'
p348
S"<class 'gluon.validators.IS_LIST_OF_EMAILS'>"
p349
sg58
S"<Storage {'function': 'acesso_geral_projeto', 'c...e, 'is_https': True, 'client': '187.19.190.221'}>"
p350
sS'DIV'
p351
S"<class 'gluon.html.DIV'>"
p352
sS'LEGEND'
p353
S"<class 'gluon.html.LEGEND'>"
p354
sS'to_native'
p355
S'<function to_native>'
p356
sS'COLGROUP'
p357
S"<class 'gluon.html.COLGROUP'>"
p358
sS'DAL'
p359
S"<class 'pydal.base.DAL'>"
p360
sS'ASSIGNJS'
p361
S'<function ASSIGNJS>'
p362
sS'TR'
p363
S"<class 'gluon.html.TR'>"
p364
sS'LI'
p365
S"<class 'gluon.html.LI'>"
p366
sS'TH'
p367
S"<class 'gluon.html.TH'>"
p368
sS'TD'
p369
S"<class 'gluon.html.TD'>"
p370
sS'IS_URL'
p371
S"<class 'gluon.validators.IS_URL'>"
p372
sS'A'
S"<class 'gluon.html.A'>"
p373
sS'HEAD'
p374
S"<class 'gluon.html.HEAD'>"
p375
sS'IS_DATETIME_IN_RANGE'
p376
S"<class 'gluon.validators.IS_DATETIME_IN_RANGE'>"
p377
sS'FORM'
p378
S"<class 'gluon.html.FORM'>"
p379
sS'I'
S"<class 'gluon.html.I'>"
p380
sS'IS_NOT_IN_DB'
p381
S"<class 'gluon.validators.IS_NOT_IN_DB'>"
p382
sg123
S"<Storage {'body': <cStringIO.StringO object at 0...0>, 'view': 'default/acesso_geral_projeto.html'}>"
p383
sS'THEAD'
p384
S"<class 'gluon.html.THEAD'>"
p385
sS'a'
S'16'
p386
sS'IS_NULL_OR'
p387
S"<class 'gluon.validators.IS_EMPTY_OR'>"
p388
sS'IS_FLOAT_IN_RANGE'
p389
S"<class 'gluon.validators.IS_FLOAT_IN_RANGE'>"
p390
sS'IS_EXPR'
p391
S"<class 'gluon.validators.IS_EXPR'>"
p392
sS'T'
S'<gluon.languages.translator object>'
p393
sS'IS_IN_SET'
p394
S"<class 'gluon.validators.IS_IN_SET'>"
p395
sS'IS_UPLOAD_FILENAME'
p396
S"<class 'gluon.validators.IS_UPLOAD_FILENAME'>"
p397
sS'TT'
p398
S"<class 'gluon.html.TT'>"
p399
sS'IS_DECIMAL_IN_RANGE'
p400
S"<class 'gluon.validators.IS_DECIMAL_IN_RANGE'>"
p401
sssS'traceback'
p402
S'Traceback (most recent call last):\n  File "/home/rogoberto/web2py/gluon/restricted.py", line 219, in restricted\n    exec(ccode, environment)\n  File "/home/rogoberto/web2py/applications/abencoado/views/default/acesso_geral_projeto.html", line 157, in <module>\nZeroDivisionError: float division by zero\n'
p403
s.