(dp1
S'output'
p2
S'missing "pass" in view'
p3
sS'layer'
p4
S'ParserContainer'
p5
sS'code'
p6
S'response.write(\'<!DOCTYPE html>\\n<!--[if (gt IE 9)|!(IE)]><!--> <html class="no-js" lang="\', escape=False)\nresponse.write(T.accepted_language or \'en\')\nresponse.write(\'"> <!--<![endif]-->\\n  <head>\\n    <meta charset="utf-8">\\n    <!-- www.phpied.com/conditional-comments-block-downloads/ -->\\n    <!-- Always force latest IE rendering engine\\n         (even in intranet) & Chrome Frame\\n         Remove this if you use the .htaccess -->\\n    <meta http-equiv="X-UA-Compatible" content="IE=edge\', escape=False)\nresponse.write(not request.is_local and \',chrome=1\' or \'\')\nresponse.write(\'">\\n    <!--  Mobile Viewport Fix\\n          j.mp/mobileviewport & davidbcalhoun.com/2010/viewport-metatag\\n          device-width: Occupy full width of the screen in its current orientation\\n          initial-scale = 1.0 retains dimensions instead of zooming out if page height > device height\\n          user-scalable = yes allows the user to zoom in -->\\n    <meta name="viewport" content="width=device-width, initial-scale=1.0">\\n    <title>\', escape=False)\nresponse.write(response.title or request.application)\nresponse.write(\'</title>\\n    <!-- http://dev.w3.org/html5/markup/meta.name.html -->\\n    <meta name="application-name" content="\', escape=False)\nresponse.write(request.application)\nresponse.write(\'">\\n    <!-- Speaking of Google, don\\\'t forget to set your site up:\\n         http://google.com/webmasters -->\\n    <meta name="google-site-verification" content="">\\n    <!-- include stylesheets -->\\n    <link rel="stylesheet" href="https://cdnjs.cloudflare.com/ajax/libs/font-awesome/4.7.0/css/font-awesome.min.css"/>\\n    <link rel="stylesheet" href="\', escape=False)\nresponse.write(URL(\'static\',\'css/bootstrap.min.css\'))\nresponse.write(\'"/>\\n    <link rel="stylesheet" href="\', escape=False)\nresponse.write(URL(\'static\',\'css/web2py-bootstrap4.css\'))\nresponse.write(\'"/>\\n    <link rel="shortcut icon" href="\', escape=False)\nresponse.write(URL(\'static\',\'images/favicon.ico\'))\nresponse.write(\'" type="image/x-icon">\\n    <link rel="apple-touch-icon" href="\', escape=False)\nresponse.write(URL(\'static\',\'images/favicon.png\'))\nresponse.write(\'">\\n    <!-- All JavaScript at the bottom, except for Modernizr which enables\\n         HTML5 elements & feature detects -->\\n    <script src="\', escape=False)\nresponse.write(URL(\'static\',\'js/modernizr-2.8.3.min.js\'))\nresponse.write(\'"></script>\\n    <!-- Favicons -->\\n    \', escape=False)\nresponse.write(\'<script type="text/javascript"><!--\\n    // These variables are used by the web2py_ajax_init function in web2py_ajax.js (which is loaded below).\\n    \', escape=False)\nresponse.write(ASSIGNJS(\nw2p_ajax_confirm_message = T(\'Are you sure you want to delete this object?\'),\nw2p_ajax_disable_with_message = T(\'Working...\'),\nw2p_ajax_date_format = T(\'%Y-%m-%d\'),\nw2p_ajax_datetime_format = T(\'%Y-%m-%d %H:%M:%S\'),\najax_error_500 = T.M(\'An error occured, please [[reload %s]] the page\') % URL(args=request.args, vars=request.get_vars)\n))\nresponse.write(\'\\n    //--></script>\\n\', escape=False)\nresponse.files.insert(0,URL(\'static\',\'js/jquery.js\'))\nresponse.files.insert(1,URL(\'static\',\'css/calendar.css\'))\nresponse.files.insert(2,URL(\'static\',\'js/calendar.js\'))\nresponse.files.insert(3,URL(\'static\',\'js/web2py.js\'))\nresponse.include_meta()\nresponse.include_files()\nresponse.write(\'\\n\', escape=False)\nresponse.write(\' <!-- this includes jquery.js, calendar.js/.css and web2py.js -->\\n    \', escape=False)\nresponse.write(\'\\n  </head>\\n  <body>\\n    <div class="w2p_flash alert alert-dismissable">\', escape=False)\nresponse.write(response.flash or \'\')\nresponse.write(\'</div>\\n    <!-- Navbar ======================================= -->\\n    <nav class="navbar navbar-light navbar-expand-md bg-faded justify-content-center">\\n       <a href="https://rogoberto.pythonanywhere.com" class="navbar-brand d-flex w-50 mr-auto">CHEFE DE EQUIPE</a>\\n       <button class="navbar-toggler" type="button" data-toggle="collapse" data-target="#navbarNavDropdown" aria-controls="navbarNavDropdown" aria-expanded="false" aria-label="Toggle navigation">\\n         <span class="navbar-toggler-icon"></span>\\n       </button>\\n       <div class="navbar-collapse collapse w-100" id="navbarNavDropdown">\\n         <ul class="navbar-nav w-100 justify-content-center">\\n          \', escape=False)\nfor _item in response.menu or []:\n    response.write(\'\\n          \', escape=False)\n    if len(_item)<4 or not _item[3]:\n        response.write(\'\\n          <li class="nav-item \', escape=False)\n        if _item[1]:\n            response.write(\'active\', escape=False)\n            pass\n        response.write(\'">\\n            <a class="nav-link" href="\', escape=False)\n        response.write(_item[2])\n        response.write(\'">\', escape=False)\n        response.write(_item[0])\n        response.write(\'</a>\\n          </li>\\n          \', escape=False)\n    else:\n        response.write(\'\\n          <li class="nav-item dropdown">\\n            <a class="nav-link dropdown-toggle" href="\', escape=False)\n        response.write(_item[2])\n        response.write(\'" data-toggle="dropdown" aria-haspopup="true" aria-expanded="false">\', escape=False)\n        response.write(_item[0])\n        response.write(\'</a>\\n            <div class="dropdown-menu">\\n              \', escape=False)\n        for _subitem in _item[3]:\n            response.write(\'\\n              <a class="dropdown-item" href="\', escape=False)\n            response.write(_subitem[2])\n            response.write(\'">\', escape=False)\n            response.write(_subitem[0])\n            response.write(\'</a>\\n              \', escape=False)\n            pass\n        response.write(\'\\n            </div>\\n          </li>\\n          \', escape=False)\n        pass\n    response.write(\'\\n          \', escape=False)\n    pass\nresponse.write(\'\\n        </ul>\\n        \\n        \', escape=False)\nif \'auth\' in globals():\n    response.write(\'\\n        <ul class="nav navbar-nav ml-auto w-100 justify-content-end">\\n          <li class="nav-item dropdown">\\n            <a class="nav-link dropdown-toggle" href="#" data-toggle="dropdown" aria-haspopup="true" aria-expanded="false">\\n              \', escape=False)\n    if auth.user:\n        response.write(auth.user.first_name)\n    else:\n        response.write(\'LOGIN\', escape=False)\n        pass\n    response.write(\'\\n            </a>\\n            <div class="dropdown-menu dropdown-menu-right">\\n              \', escape=False)\n    if auth.user:\n        response.write(\'\\n              <a class="dropdown-item" href="\', escape=False)\n        response.write(URL(\'default\',\'user/profile\'))\n        response.write(\'">\', escape=False)\n        response.write(T(\'Profile\'))\n        response.write(\'</a>\\n              \', escape=False)\n        if \'change_password\' not in auth.settings.actions_disabled:\n            response.write(\'\\n              <a class="dropdown-item" href="\', escape=False)\n            response.write(URL(\'default\',\'user/change_password\'))\n            response.write(\'">\', escape=False)\n            response.write(T(\'Change Password\'))\n            response.write(\'</a>\\n              \', escape=False)\n            pass\n        response.write(\'\\n              <a class="dropdown-item" href="\', escape=False)\n        response.write(URL(\'default\',\'user/logout\'))\n        response.write(\'">\', escape=False)\n        response.write(T(\'Logout\'))\n        response.write(\'</a>\\n              \', escape=False)\n    else:\n        response.write(\'\\n              <a class="dropdown-item" href="\', escape=False)\n        response.write(URL(\'default\',\'user/login\'))\n        response.write(\'">\', escape=False)\n        response.write(T(\'Login\'))\n        response.write(\'</a>\\n              \', escape=False)\n        if \'register\' not in auth.settings.actions_disabled:\n            response.write(\'\\n              <a class="dropdown-item" href="\', escape=False)\n            response.write(URL(\'default\',\'user/register\'))\n            response.write(\'">\', escape=False)\n            response.write(T(\'Sign up\'))\n            response.write(\'</a>\\n              \', escape=False)\n            pass\n        response.write(\'\\n              \', escape=False)\n        if \'retrieve_password\' not in auth.settings.actions_disabled:\n            response.write(\'\\n              <a class="dropdown-item" href="\', escape=False)\n            response.write(URL(\'default\',\'user/retrieve_password\'))\n            response.write(\'">\', escape=False)\n            response.write(T(\'Lost Password\'))\n            response.write(\'</a>\\n              \', escape=False)\n            pass\n        response.write(\'\\n              \', escape=False)\n        pass\n    response.write(\'\\n            </div>\\n          </li>\\n        </ul>\\n        \', escape=False)\n    pass\nresponse.write(\'\\n      </div>\\n    </nav>\\n\\n    <!-- Masthead ===================================== -->\\n    \', escape=False)\nresponse.write(\'\\n    \', escape=False)\nresponse.write(\'\\n    <!-- Main ========================================= -->\\n    <!-- Begin page content -->\\n    <div class="container-fluid main-container">\\n        <div class="section">\\n      <div class="container">\\n        <div class="row">\\n          <div class="col-md-12">\\n      \', escape=False)\nresponse.write(\'\\n<a class="btn btn-secondary btn-success" href="\', escape=False)\nresponse.write(URL(\'default\',\'acesso_geral_projeto\', args=projeto.id))\nresponse.write(\'">VOLTAR</a>\\n<h1>RELAT\\xc3\\x93RIO</h1>\\n<p>\\n    DESCRI\\xc3\\x87\\xc3\\x83O PARA CONTROLE\\n</p>\\n<hr>\\n <div class="section">\\n      <div class="container">\\n        <div class="row">\\n          <div class="col-md-6">\\n\\n\\n <ul class="list-group">\\n              <li class="list-group-item active">MERCADORIA E VENDAS</li>\\n     <li class="list-group-item">MERCADORIA <b>- R$ \', escape=False)\nresponse.write("{:,}".format(round(projeto.total_preco_mercadoria,2)).replace(",","."))\nresponse.write(\'0</b><br>\\n     QUANTIDADE DE PE\\xc3\\x87AS - <b>\', escape=False)\nresponse.write(projeto.total_pecas_mercadoria)\nresponse.write(\'</b>\\n     </li>\\n     <li class="list-group-item">VENDA<b>- R$ \', escape=False)\nresponse.write("{:,}".format(round(projeto.total_venda_praso,2)).replace(",","."))\nresponse.write(\'0</b><br>\\n     QUANTIDADE DE FICHAS - <b>\', escape=False)\nresponse.write(projeto.total_quant_fichas)\nresponse.write(\'</b> </li>\\n\\n            </ul>\\n<br>\', escape=False)\ntotal=0\nresponse.write(\'\\n <ul class="list-group">\\n              <li class="list-group-item active">ENTRADA DE DINHEIRO</li>\\n              <li class="list-group-item">ADIANTAMENTO - R$ \', escape=False)\nresponse.write("{:,}".format(round(projeto.dinheiro_adiantado,2)).replace(",","."))\nresponse.write(\'0</li>\\n     <li class="list-group-item">\\xc3\\x80 VISTA- R$ \', escape=False)\nresponse.write("{:,}".format(round(projeto.total_venda_vista,2)).replace(",","."))\nresponse.write(\'0</li>\\n     \', escape=False)\ntotal=projeto.dinheiro_adiantado+projeto.total_venda_vista\nresponse.write(\'\\n     <li class="list-group-item  list-group-item-success">TOTAL DINHEIRO <b>- R$ \', escape=False)\nresponse.write("{:,}".format(round(total,2)).replace(",","."))\nresponse.write(\'0</b></li>\\n            </ul>\\n<br>\\n\\n <ul class="list-group">\\n              <li class="list-group-item active">SAIDA DE DINHEIRO</li>\\n     <li class="list-group-item">DESPESAS - R$ \', escape=False)\nresponse.write("{:,}".format(round(projeto.total_despesa,2)).replace(",","."))\nresponse.write(\'0</li>\\n              <li class="list-group-item">CAD. VENDEDOR - R$ \', escape=False)\nresponse.write("{:,}".format(round(projeto.total_vale_caderno_vendedor,2)).replace(",","."))\nresponse.write(\'0</li>\\n              <li class="list-group-item">CAD. FUNCIONARIO - R$ \', escape=False)\nresponse.write("{:,}".format(round(projeto.total_vale_caderno_funcionario,2)).replace(",","."))\nresponse.write(\'0</li>\\n      <li class="list-group-item">CAD. CHEFE - R$ \', escape=False)\nresponse.write("{:,}".format(round(projeto.caderno_chefe,2)).replace(",","."))\nresponse.write(\'0</li>\\n     \', escape=False)\ntotald=projeto.total_despesa+projeto.total_vale_caderno_vendedor+projeto.total_vale_caderno_funcionario+projeto.caderno_chefe\nresponse.write(\'\\n     <li class="list-group-item list-group-item-danger">TOTAL DESPESAS <b>- R$ \', escape=False)\nresponse.write("{:,}".format(round(totald,2)).replace(",","."))\nresponse.write(\'0</b></li>\\n            </ul>\\n              <br>\\n              <ul class="list-group">\\n              <li class="list-group-item active">DINHEIRO EM CAIXA</li>\\n                  \', escape=False)\ncaixa=total-totald\nresponse.write(\'\\n                  \', escape=False)\nif caixa>=0:\n    response.write(\'\\n     <li class="list-group-item">CAIXA - R$ \', escape=False)\n    response.write("{:,}".format(round(caixa,2)).replace(",","."))\n    response.write(\'0</li>\\n                  \', escape=False)\nelse:\n    response.write(\'\\n                  \\n     <li class="list-group-item  list-group-item-danger">CAIXA NEGATIVO - R$ \', escape=False)\n    response.write("{:,}".format(round(caixa,2)).replace(",","."))\n    response.write(\'0</li>\\n                  \', escape=False)\n    passa\n    response.write(\'\\n            </ul>\\n              <br>\\n\\n</div>\\n          <div class="col-md-6">\\n              \\n               <ul class="list-group">\\n                   \\n              <li class="list-group-item active">INFORMA\\xc3\\x87\\xc3\\x95ES COMISS\\xc3\\x83O</li>\\n                   \\n                   \', escape=False)\n    comissao=projeto.comissao_chefe*projeto.total_venda_praso/100\n    response.write(\'\\n              <li class="list-group-item">COMISS\\xc3\\x83O VENDA PRAZO - R$ \', escape=False)\n    response.write("{:,}".format(round(comissao,2)).replace(",","."))\n    response.write(\'0</li>\\n                    \', escape=False)\n    comissaov=projeto.comissao_chefe*projeto.total_venda_vista/100\n    response.write(\'\\n              <li class="list-group-item">COMISS\\xc3\\x83O VENDA \\xc3\\x80 VISTA - R$ \', escape=False)\n    response.write("{:,}".format(round(comissaov,2)).replace(",","."))\n    response.write(\'0</li>\\n                   \', escape=False)\n    saldoc=projeto.vale_chefe\n    response.write(\'\\n                   <li class="list-group-item">VALE DO CHEFE - R$ \', escape=False)\n    response.write("{:,}".format(round(saldoc,2)).replace(",","."))\n    response.write(\'0</li>\\n                   \\n                    <li class="list-group-item">CADERNO DO CHEFE - R$ \', escape=False)\n    response.write("{:,}".format(round(projeto.caderno_chefe,2)).replace(",","."))\n    response.write(\'0</li>\\n                   \', escape=False)\n    saldoc+=projeto.caderno_chefe\n    response.write(\'\\n  \', escape=False)\n    saldoc=comissao+comissaov-saldoc\n    response.write(\'\\n                   \', escape=False)\n    if saldoc>=0:\n        response.write(\'\\n     <li class="list-group-item  list-group-item-success">SALDO <b>- R$ \', escape=False)\n        response.write("{:,}".format(round(saldoc,2)).replace(",","."))\n        response.write(\'0</b></li>\\n                   \', escape=False)\n    else:\n        response.write(\'\\n                   <li class="list-group-item  list-group-item-danger">SALDO ESTA NEGATIVO <b>- R$ \', escape=False)\n        response.write("{:,}".format(round(saldoc,2)).replace(",","."))\n        response.write(\'0</b></li>\\n                   \', escape=False)\n        pass\n    response.write(\'\\n            </ul>\\n<br>\\n          </div>\\n        </div>\\n      </div>\\n    </div>\\n\', escape=False)\n    response.write(\'\\n      \', escape=False)\n    response.write(response.toolbar() if response.show_toolbar else \'\')\n    response.write(\'\\n    </div></div></div></div></div>\\n    \', escape=False)\n    response.write(\' <!-- this is default footer -->\\n    <footer class="footer container-fluid">\\n      <div class="row">\\n        <div class="col-md-12">\\n          <div class="copyright pull-left">\', escape=False)\n    response.write(T(\'Copyright\'))\n    response.write(\' &#169; \', escape=False)\n    response.write(request.now.year)\n    response.write(\'</div>\\n          <div id="poweredBy" class="pull-right">\\n            \', escape=False)\n    response.write(T(\'Powered by\'))\n    response.write(\'\\n            <a href="https://api.whatsapp.com/send?phone=5588981126816">Betinho Ribeiro</a>\\n          </div>\\n        </div>\\n      </div>\\n    </footer>\\n    \', escape=False)\n    response.write(\'\\n    <!-- The javascript =============================== -->\\n    <script src="\', escape=False)\n    response.write(URL(\'static\',\'js/bootstrap.bundle.min.js\'))\n    response.write(\'"></script>\\n    <script src="\', escape=False)\n    response.write(URL(\'static\',\'js/web2py-bootstrap4.js\'))\n    response.write(\'"></script>\\n    \', escape=False)\n    response.write(\'\\n    \', escape=False)\n    if response.google_analytics_id:\n        response.write(\'\\n    <!-- Analytics ==================================== -->\\n    <script src="\', escape=False)\n        response.write(URL(\'static\',\'js/analytics.min.js\'))\n        response.write(\'"></script>\\n    <script type="text/javascript">\\n      analytics.initialize({\\n      \\\'Google Analytics\\\':{trackingId:\\\'\', escape=False)\n        response.write(response.google_analytics_id)\n        response.write("\'}\\n      });\\n    </script>\\n    ", escape=False)\n        pass\n    response.write(\'\\n  </body>\\n</html>\\n\', escape=False)'
p7
sS'snapshot'
p8
(dp9
sS'traceback'
p10
S'None\n'
p11
s.